target datalayout = "e-m:e-p270:32:32-p271:32:32-p272:64:64-i64:64-i128:128-f80:128-n8:16:32:64-S128"
target triple = "x86_64-pc-linux-gnu"

%"class.std::ios_base::Init" = type { i8 }

@_ZStL8__ioinit = internal global %"class.std::ios_base::Init" zeroinitializer, align 1
@__dso_handle = external hidden global i8
@LGBM_MAX_NUM_THREADS = global i32 -1, align 4
@LGBM_DEFAULT_NUM_THREADS = global i32 -1, align 4
@llvm.global_ctors = appending global [1 x { i32, ptr, ptr }] [{ i32, ptr, ptr } { i32 65535, ptr @_GLOBAL__sub_I_openmp_wrapper.cpp, ptr null }]

; Function Attrs: uwtable
define internal void @__cxx_global_var_init() #0 section ".text.startup" {
  call void @_ZNSt8ios_base4InitC1Ev(ptr noundef nonnull align 1 dereferenceable(1) @_ZStL8__ioinit)
  %1 = call i32 @__cxa_atexit(ptr @_ZNSt8ios_base4InitD1Ev, ptr @_ZStL8__ioinit, ptr @__dso_handle) #3
  ret void
}

declare void @_ZNSt8ios_base4InitC1Ev(ptr noundef nonnull align 1 dereferenceable(1)) unnamed_addr #1

; Function Attrs: nounwind
declare void @_ZNSt8ios_base4InitD1Ev(ptr noundef nonnull align 1 dereferenceable(1)) unnamed_addr #2

; Function Attrs: nounwind
declare i32 @__cxa_atexit(ptr, ptr, ptr) #3

; Function Attrs: mustprogress uwtable
define i32 @OMP_NUM_THREADS() #4 {
  %1 = alloca i32, align 4
  %2 = alloca i32, align 4
  store i32 1, ptr %2, align 4
  %3 = load i32, ptr @LGBM_DEFAULT_NUM_THREADS, align 4
  %4 = icmp sgt i32 %3, 0
  br i1 %4, label %5, label %7

5:                                                ; preds = %0
  %6 = load i32, ptr @LGBM_DEFAULT_NUM_THREADS, align 4
  store i32 %6, ptr %2, align 4
  br label %9

7:                                                ; preds = %0
  %8 = call i32 @omp_get_max_threads()
  store i32 %8, ptr %2, align 4
  br label %9

9:                                                ; preds = %7, %5
  %10 = load i32, ptr @LGBM_MAX_NUM_THREADS, align 4
  %11 = icmp sgt i32 %10, 0
  br i1 %11, label %12, label %18

12:                                               ; preds = %9
  %13 = load i32, ptr %2, align 4
  %14 = load i32, ptr @LGBM_MAX_NUM_THREADS, align 4
  %15 = icmp sgt i32 %13, %14
  br i1 %15, label %16, label %18

16:                                               ; preds = %12
  %17 = load i32, ptr @LGBM_MAX_NUM_THREADS, align 4
  store i32 %17, ptr %1, align 4
  br label %20

18:                                               ; preds = %12, %9
  %19 = load i32, ptr %2, align 4
  store i32 %19, ptr %1, align 4
  br label %20

20:                                               ; preds = %18, %16
  %21 = load i32, ptr %1, align 4
  ret i32 %21
}

declare i32 @omp_get_max_threads() #1

; Function Attrs: mustprogress nounwind uwtable
define void @OMP_SET_NUM_THREADS(i32 noundef %0) #5 {
  %2 = alloca i32, align 4
  store i32 %0, ptr %2, align 4
  %3 = load i32, ptr %2, align 4
  %4 = icmp sle i32 %3, 0
  br i1 %4, label %5, label %6

5:                                                ; preds = %1
  store i32 -1, ptr @LGBM_DEFAULT_NUM_THREADS, align 4
  br label %8

6:                                                ; preds = %1
  %7 = load i32, ptr %2, align 4
  store i32 %7, ptr @LGBM_DEFAULT_NUM_THREADS, align 4
  br label %8

8:                                                ; preds = %6, %5
  ret void
}

; Function Attrs: uwtable
define internal void @_GLOBAL__sub_I_openmp_wrapper.cpp() #0 section ".text.startup" {
  call void @__cxx_global_var_init()
  ret void
}


!llvm.module.flags = !{!0, !1, !2, !3, !4}

!0 = !{i32 1, !"wchar_size", i32 4}
!1 = !{i32 7, !"openmp", i32 51}
!2 = !{i32 8, !"PIC Level", i32 2}
!3 = !{i32 7, !"uwtable", i32 2}
!4 = !{i32 7, !"frame-pointer", i32 2}
