; ModuleID = 'bench/lightgbm/original/openmp_wrapper.cpp.ll'
source_filename = "bench/lightgbm/original/openmp_wrapper.cpp.ll"
target datalayout = "e-m:e-p270:32:32-p271:32:32-p272:64:64-i64:64-i128:128-f80:128-n8:16:32:64-S128"
target triple = "x86_64-pc-linux-gnu"

%"class.std::ios_base::Init" = type { i8 }

@_ZStL8__ioinit = internal global %"class.std::ios_base::Init" zeroinitializer, align 1
@__dso_handle = external hidden global i8
@LGBM_MAX_NUM_THREADS = local_unnamed_addr global i32 -1, align 4
@LGBM_DEFAULT_NUM_THREADS = local_unnamed_addr global i32 -1, align 4
@llvm.global_ctors = appending global [1 x { i32, ptr, ptr }] [{ i32, ptr, ptr } { i32 65535, ptr @_GLOBAL__sub_I_openmp_wrapper.cpp, ptr null }]

declare void @_ZNSt8ios_base4InitC1Ev(ptr noundef nonnull align 1 dereferenceable(1)) unnamed_addr #0

; Function Attrs: nounwind
declare void @_ZNSt8ios_base4InitD1Ev(ptr noundef nonnull align 1 dereferenceable(1)) unnamed_addr #1

; Function Attrs: nofree nounwind
declare i32 @__cxa_atexit(ptr, ptr, ptr) local_unnamed_addr #2

; Function Attrs: mustprogress nounwind uwtable
define i32 @OMP_NUM_THREADS() local_unnamed_addr #3 {
  %1 = load i32, ptr @LGBM_DEFAULT_NUM_THREADS, align 4
  %2 = icmp sgt i32 %1, 0
  br i1 %2, label %5, label %3

3:                                                ; preds = %0
  %4 = tail call i32 @omp_get_max_threads()
  br label %5

5:                                                ; preds = %0, %3
  %.0 = phi i32 [ %4, %3 ], [ %1, %0 ]
  %6 = load i32, ptr @LGBM_MAX_NUM_THREADS, align 4
  %7 = icmp sgt i32 %6, 0
  %8 = tail call i32 @llvm.smin.i32(i32 %.0, i32 %6)
  %.03 = select i1 %7, i32 %8, i32 %.0
  ret i32 %.03
}

; Function Attrs: nounwind
declare i32 @omp_get_max_threads() local_unnamed_addr #1

; Function Attrs: mustprogress nofree norecurse nosync nounwind willreturn memory(write, argmem: none, inaccessiblemem: none) uwtable
define void @OMP_SET_NUM_THREADS(i32 noundef %0) local_unnamed_addr #4 {
  %2 = icmp slt i32 %0, 1
  %. = select i1 %2, i32 -1, i32 %0
  store i32 %., ptr @LGBM_DEFAULT_NUM_THREADS, align 4
  ret void
}

; Function Attrs: uwtable
define internal void @_GLOBAL__sub_I_openmp_wrapper.cpp() #5 section ".text.startup" {
  tail call void @_ZNSt8ios_base4InitC1Ev(ptr noundef nonnull align 1 dereferenceable(1) @_ZStL8__ioinit)
  %1 = tail call i32 @__cxa_atexit(ptr nonnull @_ZNSt8ios_base4InitD1Ev, ptr nonnull @_ZStL8__ioinit, ptr nonnull @__dso_handle) #7
  ret void
}

; Function Attrs: nocallback nofree nosync nounwind speculatable willreturn memory(none)
declare i32 @llvm.smin.i32(i32, i32) #6


!llvm.module.flags = !{!0, !1, !2, !3, !4}

!0 = !{i32 1, !"wchar_size", i32 4}
!1 = !{i32 7, !"openmp", i32 51}
!2 = !{i32 8, !"PIC Level", i32 2}
!3 = !{i32 7, !"uwtable", i32 2}
!4 = !{i32 7, !"frame-pointer", i32 2}
